target datalayout = "e-m:e-p270:32:32-p271:32:32-p272:64:64-i64:64-i128:128-f80:128-n8:16:32:64-S128"
target triple = "x86_64-unknown-linux-gnu"

%struct.DisasContextBase = type { ptr, i64, i64, i32, i32, i32, i8, i8, i8, [2 x ptr] }

@tcg_env = external global ptr, align 8

; Function Attrs: nounwind sspstrong uwtable
define internal void @set_can_do_io(ptr noundef %db, i1 noundef zeroext %val) #0 {
entry:
  %db.addr = alloca ptr, align 8
  %val.addr = alloca i8, align 1
  store ptr %db, ptr %db.addr, align 8
  %frombool = zext i1 %val to i8
  store i8 %frombool, ptr %val.addr, align 1
  %0 = load ptr, ptr %db.addr, align 8
  %saved_can_do_io = getelementptr inbounds %struct.DisasContextBase, ptr %0, i32 0, i32 7
  %1 = load i8, ptr %saved_can_do_io, align 1
  %conv = sext i8 %1 to i32
  %2 = load i8, ptr %val.addr, align 1
  %tobool = trunc i8 %2 to i1
  %conv1 = zext i1 %tobool to i32
  %cmp = icmp ne i32 %conv, %conv1
  br i1 %cmp, label %if.then, label %if.end

if.then:                                          ; preds = %entry
  %3 = load i8, ptr %val.addr, align 1
  %tobool3 = trunc i8 %3 to i1
  %conv4 = zext i1 %tobool3 to i8
  %4 = load ptr, ptr %db.addr, align 8
  %saved_can_do_io5 = getelementptr inbounds %struct.DisasContextBase, ptr %4, i32 0, i32 7
  store i8 %conv4, ptr %saved_can_do_io5, align 1
  %5 = load i8, ptr %val.addr, align 1
  %tobool6 = trunc i8 %5 to i1
  %conv7 = zext i1 %tobool6 to i32
  %call = call ptr @tcg_constant_i32(i32 noundef %conv7)
  %6 = load ptr, ptr @tcg_env, align 8
  call void @tcg_gen_st8_i32(ptr noundef %call, ptr noundef %6, i64 noundef -12)
  br label %if.end

if.end:                                           ; preds = %if.then, %entry
  ret void
}

; Function Attrs: nounwind sspstrong uwtable
define dso_local zeroext i1 @translator_io_start(ptr noundef %db) #0 {
entry:
  %db.addr = alloca ptr, align 8
  store ptr %db, ptr %db.addr, align 8
  %0 = load ptr, ptr %db.addr, align 8
  call void @set_can_do_io(ptr noundef %0, i1 noundef zeroext true)
  %1 = load ptr, ptr %db.addr, align 8
  %is_jmp = getelementptr inbounds %struct.DisasContextBase, ptr %1, i32 0, i32 3
  %2 = load i32, ptr %is_jmp, align 8
  %cmp = icmp eq i32 %2, 0
  br i1 %cmp, label %if.then, label %if.end

if.then:                                          ; preds = %entry
  %3 = load ptr, ptr %db.addr, align 8
  %is_jmp1 = getelementptr inbounds %struct.DisasContextBase, ptr %3, i32 0, i32 3
  store i32 1, ptr %is_jmp1, align 8
  br label %if.end

if.end:                                           ; preds = %if.then, %entry
  ret i1 true
}