; Function Attrs: nounwind sspstrong uwtable
define dso_local noundef zeroext i1 @translator_io_start(ptr noundef captures(none) %db) local_unnamed_addr #0 {
entry:
  %saved_can_do_io.i = getelementptr inbounds nuw i8, ptr %db, i64 37
  %0 = load i8, ptr %saved_can_do_io.i, align 1
  %cmp.not.i = icmp eq i8 %0, 1
  br i1 %cmp.not.i, label %set_can_do_io.exit, label %if.then.i

if.then.i:                                        ; preds = %entry
  store i8 1, ptr %saved_can_do_io.i, align 1
  %call.i = tail call ptr @tcg_constant_i32(i32 noundef 1) #8
  %1 = load ptr, ptr @tcg_env, align 8
  tail call void @tcg_gen_st8_i32(ptr noundef %call.i, ptr noundef %1, i64 noundef -12) #8
  br label %set_can_do_io.exit

set_can_do_io.exit:                               ; preds = %entry, %if.then.i
  %is_jmp = getelementptr inbounds nuw i8, ptr %db, i64 24
  %2 = load i32, ptr %is_jmp, align 8
  %cmp = icmp eq i32 %2, 0
  br i1 %cmp, label %if.then, label %if.end

if.then:                                          ; preds = %set_can_do_io.exit
  store i32 1, ptr %is_jmp, align 8
  br label %if.end

if.end:                                           ; preds = %if.then, %set_can_do_io.exit
  ret i1 true
}